; Function Attrs: mustprogress uwtable
define void @_ZN5arrow17LoggingMemoryPool10ReallocateElllPPh(ptr dead_on_unwind noalias writable sret(%"class.arrow::Status") align 8 %0, ptr noundef nonnull readonly align 8 captures(none) dereferenceable(16) %1, i64 noundef %2, i64 noundef %3, i64 noundef %4, ptr noundef %5) unnamed_addr #4 align 2 personality ptr @__gxx_personality_v0 {
  %7 = getelementptr inbounds nuw i8, ptr %1, i64 8
  %8 = load ptr, ptr %7, align 8, !tbaa !44
  %9 = load ptr, ptr %8, align 8, !tbaa !10, !noalias !69
  %10 = getelementptr inbounds nuw i8, ptr %9, i64 24
  %11 = load ptr, ptr %10, align 8, !noalias !69
  tail call void %11(ptr dead_on_unwind writable sret(%"class.arrow::Status") align 8 %0, ptr noundef nonnull align 8 dereferenceable(8) %8, i64 noundef %2, i64 noundef %3, i64 noundef 64, ptr noundef %5)
  %12 = invoke noundef nonnull align 8 dereferenceable(8) ptr @_ZSt16__ostream_insertIcSt11char_traitsIcEERSt13basic_ostreamIT_T0_ES6_PKS3_l(ptr noundef nonnull align 8 dereferenceable(8) @_ZSt4cout, ptr noundef nonnull @.str.7, i64 noundef 23)
          to label %_ZStlsISt11char_traitsIcEERSt13basic_ostreamIcT_ES5_PKc.exit unwind label %37

_ZStlsISt11char_traitsIcEERSt13basic_ostreamIcT_ES5_PKc.exit: ; preds = %6
  %13 = invoke noundef nonnull align 8 dereferenceable(8) ptr @_ZNSo9_M_insertIlEERSoT_(ptr noundef nonnull align 8 dereferenceable(8) @_ZSt4cout, i64 noundef %2)
          to label %_ZNSolsEl.exit unwind label %37

_ZNSolsEl.exit:                                   ; preds = %_ZStlsISt11char_traitsIcEERSt13basic_ostreamIcT_ES5_PKc.exit
  %14 = invoke noundef nonnull align 8 dereferenceable(8) ptr @_ZSt16__ostream_insertIcSt11char_traitsIcEERSt13basic_ostreamIT_T0_ES6_PKS3_l(ptr noundef nonnull align 8 dereferenceable(8) %13, ptr noundef nonnull @.str.8, i64 noundef 13)
          to label %_ZStlsISt11char_traitsIcEERSt13basic_ostreamIcT_ES5_PKc.exit9 unwind label %37

_ZStlsISt11char_traitsIcEERSt13basic_ostreamIcT_ES5_PKc.exit9: ; preds = %_ZNSolsEl.exit
  %15 = invoke noundef nonnull align 8 dereferenceable(8) ptr @_ZNSo9_M_insertIlEERSoT_(ptr noundef nonnull align 8 dereferenceable(8) %13, i64 noundef %3)
          to label %_ZNSolsEl.exit10 unwind label %37

_ZNSolsEl.exit10:                                 ; preds = %_ZStlsISt11char_traitsIcEERSt13basic_ostreamIcT_ES5_PKc.exit9
  %16 = invoke noundef nonnull align 8 dereferenceable(8) ptr @_ZSt16__ostream_insertIcSt11char_traitsIcEERSt13basic_ostreamIT_T0_ES6_PKS3_l(ptr noundef nonnull align 8 dereferenceable(8) %15, ptr noundef nonnull @.str.6, i64 noundef 14)
          to label %_ZStlsISt11char_traitsIcEERSt13basic_ostreamIcT_ES5_PKc.exit11 unwind label %37

_ZStlsISt11char_traitsIcEERSt13basic_ostreamIcT_ES5_PKc.exit11: ; preds = %_ZNSolsEl.exit10
  %17 = invoke noundef nonnull align 8 dereferenceable(8) ptr @_ZNSo9_M_insertIlEERSoT_(ptr noundef nonnull align 8 dereferenceable(8) %15, i64 noundef %4)
          to label %_ZNSolsEl.exit12 unwind label %37

_ZNSolsEl.exit12:                                 ; preds = %_ZStlsISt11char_traitsIcEERSt13basic_ostreamIcT_ES5_PKc.exit11
  %18 = load ptr, ptr %17, align 8, !tbaa !10
  %19 = getelementptr i8, ptr %18, i64 -24
  %20 = load i64, ptr %19, align 8
  %21 = getelementptr inbounds i8, ptr %17, i64 %20
  %22 = getelementptr inbounds nuw i8, ptr %21, i64 240
  %23 = load ptr, ptr %22, align 8, !tbaa !47
  %.not.i.i.i = icmp eq ptr %23, null
  br i1 %.not.i.i.i, label %24, label %_ZSt13__check_facetISt5ctypeIcEERKT_PS3_.exit.i.i

24:                                               ; preds = %_ZNSolsEl.exit12
  invoke void @_ZSt16__throw_bad_castv() #36
          to label %.noexc unwind label %37

.noexc:                                           ; preds = %24
  unreachable

_ZSt13__check_facetISt5ctypeIcEERKT_PS3_.exit.i.i: ; preds = %_ZNSolsEl.exit12
  %25 = getelementptr inbounds nuw i8, ptr %23, i64 56
  %26 = load i8, ptr %25, align 8, !tbaa !63
  %.not.i1.i.i = icmp eq i8 %26, 0
  br i1 %.not.i1.i.i, label %30, label %27

27:                                               ; preds = %_ZSt13__check_facetISt5ctypeIcEERKT_PS3_.exit.i.i
  %28 = getelementptr inbounds nuw i8, ptr %23, i64 67
  %29 = load i8, ptr %28, align 1, !tbaa !43
  br label %_ZNKSt9basic_iosIcSt11char_traitsIcEE5widenEc.exit.i

30:                                               ; preds = %_ZSt13__check_facetISt5ctypeIcEERKT_PS3_.exit.i.i
  invoke void @_ZNKSt5ctypeIcE13_M_widen_initEv(ptr noundef nonnull align 8 dereferenceable(570) %23)
          to label %.noexc13 unwind label %37

.noexc13:                                         ; preds = %30
  %31 = load ptr, ptr %23, align 8, !tbaa !10
  %32 = getelementptr inbounds nuw i8, ptr %31, i64 48
  %33 = load ptr, ptr %32, align 8
  %34 = invoke noundef signext i8 %33(ptr noundef nonnull align 8 dereferenceable(570) %23, i8 noundef signext 10)
          to label %_ZNKSt9basic_iosIcSt11char_traitsIcEE5widenEc.exit.i unwind label %37

_ZNKSt9basic_iosIcSt11char_traitsIcEE5widenEc.exit.i: ; preds = %.noexc13, %27
  %.0.i.i.i = phi i8 [ %29, %27 ], [ %34, %.noexc13 ]
  %35 = invoke noundef nonnull align 8 dereferenceable(8) ptr @_ZNSo3putEc(ptr noundef nonnull align 8 dereferenceable(8) %17, i8 noundef signext %.0.i.i.i)
          to label %.noexc15 unwind label %37

.noexc15:                                         ; preds = %_ZNKSt9basic_iosIcSt11char_traitsIcEE5widenEc.exit.i
  %36 = invoke noundef nonnull align 8 dereferenceable(8) ptr @_ZNSo5flushEv(ptr noundef nonnull align 8 dereferenceable(8) %35)
          to label %_ZNSolsEPFRSoS_E.exit unwind label %37

37:                                               ; preds = %.noexc15, %_ZNKSt9basic_iosIcSt11char_traitsIcEE5widenEc.exit.i, %.noexc13, %30, %24, %_ZStlsISt11char_traitsIcEERSt13basic_ostreamIcT_ES5_PKc.exit11, %_ZNSolsEl.exit10, %_ZStlsISt11char_traitsIcEERSt13basic_ostreamIcT_ES5_PKc.exit9, %_ZNSolsEl.exit, %_ZStlsISt11char_traitsIcEERSt13basic_ostreamIcT_ES5_PKc.exit, %6
  %38 = landingpad { ptr, i32 }
          cleanup
  %39 = load ptr, ptr %0, align 8, !tbaa !21
  %.not.i = icmp eq ptr %39, null
  br i1 %.not.i, label %_ZN5arrow6StatusD2Ev.exit, label %40, !prof !27

40:                                               ; preds = %37
  %41 = getelementptr inbounds nuw i8, ptr %39, i64 1
  %42 = load i8, ptr %41, align 1, !tbaa !28, !range !8, !noundef !9
  %43 = trunc nuw i8 %42 to i1
  br i1 %43, label %_ZN5arrow6StatusD2Ev.exit, label %44

44:                                               ; preds = %40
  tail call void @_ZN5arrow6Status11DeleteStateEv(ptr noundef nonnull align 8 dereferenceable(8) %0) #32
  br label %_ZN5arrow6StatusD2Ev.exit

_ZN5arrow6StatusD2Ev.exit:                        ; preds = %37, %40, %44
  resume { ptr, i32 } %38

_ZNSolsEPFRSoS_E.exit:                            ; preds = %.noexc15
  ret void
}